target datalayout = "e-m:e-p270:32:32-p271:32:32-p272:64:64-i64:64-i128:128-f80:128-n8:16:32:64-S128"
target triple = "x86_64-pc-linux-gnu"

%struct.jpeg_decompress_struct = type { ptr, ptr, ptr, ptr, i32, i32, ptr, i32, i32, i32, i32, i32, i32, i32, double, i32, i32, i32, i32, i32, i32, i32, i32, i32, i32, i32, i32, i32, i32, i32, i32, i32, i32, ptr, i32, i32, i32, i32, i32, ptr, [4 x ptr], [4 x ptr], [4 x ptr], i32, ptr, i32, i32, [16 x i8], [16 x i8], [16 x i8], i32, i32, i8, i8, i8, i16, i16, i32, i8, i32, ptr, i32, i32, i32, i32, ptr, i32, [4 x ptr], i32, i32, i32, [10 x i32], i32, i32, i32, i32, i32, ptr, ptr, ptr, ptr, ptr, ptr, ptr, ptr, ptr, ptr, ptr }
%struct.jpeg_component_info = type { i32, i32, i32, i32, i32, i32, i32, i32, i32, i32, i32, i32, i32, i32, i32, i32, i32, i32, i32, ptr, ptr }

; Function Attrs: nounwind uwtable
define void @jpeg_idct_1x1(ptr noundef %0, ptr noundef %1, ptr noundef %2, ptr noundef %3, i32 noundef %4) #0 {
  %6 = alloca ptr, align 8
  %7 = alloca ptr, align 8
  %8 = alloca ptr, align 8
  %9 = alloca ptr, align 8
  %10 = alloca i32, align 4
  %11 = alloca i32, align 4
  %12 = alloca ptr, align 8
  %13 = alloca ptr, align 8
  store ptr %0, ptr %6, align 8, !tbaa !3
  store ptr %1, ptr %7, align 8, !tbaa !8
  store ptr %2, ptr %8, align 8, !tbaa !9
  store ptr %3, ptr %9, align 8, !tbaa !11
  store i32 %4, ptr %10, align 4, !tbaa !13
  call void @llvm.lifetime.start.p0(i64 4, ptr %11) #2
  call void @llvm.lifetime.start.p0(i64 8, ptr %12) #2
  call void @llvm.lifetime.start.p0(i64 8, ptr %13) #2
  %14 = load ptr, ptr %6, align 8, !tbaa !3
  %15 = getelementptr inbounds nuw %struct.jpeg_decompress_struct, ptr %14, i32 0, i32 65
  %16 = load ptr, ptr %15, align 8, !tbaa !15
  %17 = getelementptr inbounds i8, ptr %16, i64 128
  store ptr %17, ptr %13, align 8, !tbaa !37
  %18 = load ptr, ptr %7, align 8, !tbaa !8
  %19 = getelementptr inbounds nuw %struct.jpeg_component_info, ptr %18, i32 0, i32 20
  %20 = load ptr, ptr %19, align 8, !tbaa !38
  store ptr %20, ptr %12, align 8, !tbaa !9
  %21 = load ptr, ptr %8, align 8, !tbaa !9
  %22 = getelementptr inbounds i16, ptr %21, i64 0
  %23 = load i16, ptr %22, align 2, !tbaa !41
  %24 = sext i16 %23 to i32
  %25 = load ptr, ptr %12, align 8, !tbaa !9
  %26 = getelementptr inbounds i16, ptr %25, i64 0
  %27 = load i16, ptr %26, align 2, !tbaa !41
  %28 = sext i16 %27 to i32
  %29 = mul nsw i32 %24, %28
  store i32 %29, ptr %11, align 4, !tbaa !13
  %30 = load i32, ptr %11, align 4, !tbaa !13
  %31 = sext i32 %30 to i64
  %32 = add nsw i64 %31, 4
  %33 = ashr i64 %32, 3
  %34 = trunc i64 %33 to i32
  store i32 %34, ptr %11, align 4, !tbaa !13
  %35 = load ptr, ptr %13, align 8, !tbaa !37
  %36 = load i32, ptr %11, align 4, !tbaa !13
  %37 = and i32 %36, 1023
  %38 = sext i32 %37 to i64
  %39 = getelementptr inbounds i8, ptr %35, i64 %38
  %40 = load i8, ptr %39, align 1, !tbaa !46
  %41 = load ptr, ptr %9, align 8, !tbaa !11
  %42 = getelementptr inbounds ptr, ptr %41, i64 0
  %43 = load ptr, ptr %42, align 8, !tbaa !37
  %44 = load i32, ptr %10, align 4, !tbaa !13
  %45 = zext i32 %44 to i64
  %46 = getelementptr inbounds nuw i8, ptr %43, i64 %45
  store i8 %40, ptr %46, align 1, !tbaa !46
  call void @llvm.lifetime.end.p0(i64 8, ptr %13) #2
  call void @llvm.lifetime.end.p0(i64 8, ptr %12) #2
  call void @llvm.lifetime.end.p0(i64 4, ptr %11) #2
  ret void
}