; Function Attrs: mustprogress nofree norecurse nosync nounwind willreturn memory(readwrite, inaccessiblemem: none) uwtable
define void @jpeg_idct_1x1(ptr noundef readonly captures(none) %0, ptr noundef readonly captures(none) %1, ptr noundef readonly captures(none) %2, ptr noundef readonly captures(none) %3, i32 noundef %4) local_unnamed_addr #2 {
  %6 = getelementptr inbounds nuw i8, ptr %0, i64 424
  %7 = load ptr, ptr %6, align 8, !tbaa !3
  %8 = getelementptr inbounds nuw i8, ptr %7, i64 128
  %9 = getelementptr inbounds nuw i8, ptr %1, i64 88
  %10 = load ptr, ptr %9, align 8, !tbaa !30
  %11 = load i16, ptr %2, align 2, !tbaa !32
  %12 = zext i16 %11 to i64
  %13 = load i16, ptr %10, align 2, !tbaa !32
  %14 = zext i16 %13 to i64
  %15 = mul nuw nsw i64 %14, %12
  %16 = add nuw nsw i64 %15, 4
  %17 = lshr i64 %16, 3
  %18 = and i64 %17, 1023
  %19 = getelementptr inbounds nuw i8, ptr %8, i64 %18
  %20 = load i8, ptr %19, align 1, !tbaa !37
  %21 = load ptr, ptr %3, align 8, !tbaa !36
  %22 = zext i32 %4 to i64
  %23 = getelementptr inbounds nuw i8, ptr %21, i64 %22
  store i8 %20, ptr %23, align 1, !tbaa !37
  ret void
}